; Function Attrs: null_pointer_is_valid sspstrong uwtable
define internal i32 @dissect_UnsuccessfulOutcomeValue(ptr noundef %0, ptr noundef %1, ptr noundef %2, ptr noundef %3) #0 {
  %5 = tail call ptr @wmem_file_scope()
  %6 = load i32, ptr @proto_f1ap, align 4
  %7 = tail call ptr @p_get_proto_data(ptr noundef %5, ptr noundef %1, i32 noundef %6, i32 noundef 0)
  %.not.i = icmp eq ptr %7, null
  br i1 %.not.i, label %8, label %f1ap_get_private_data.exit

8:                                                ; preds = %4
  %9 = tail call ptr @wmem_file_scope()
  %10 = tail call noalias dereferenceable_or_null(48) ptr @wmem_alloc0(ptr noundef %9, i64 noundef 48) #7
  %11 = getelementptr inbounds nuw i8, ptr %10, i64 28
  store i32 -1, ptr %11, align 4
  %12 = getelementptr inbounds nuw i8, ptr %10, i64 32
  store i32 1, ptr %12, align 8
  %13 = tail call ptr @wmem_file_scope()
  %14 = load i32, ptr @proto_f1ap, align 4
  tail call void @p_add_proto_data(ptr noundef %13, ptr noundef %1, i32 noundef %14, i32 noundef 0, ptr noundef %10)
  br label %f1ap_get_private_data.exit

f1ap_get_private_data.exit:                       ; preds = %4, %8
  %.0.i = phi ptr [ %7, %4 ], [ %10, %8 ]
  %15 = load ptr, ptr @f1ap_proc_uout_dissector_table, align 8
  %16 = getelementptr inbounds nuw i8, ptr %.0.i, i64 4
  %17 = load i32, ptr %16, align 4
  %18 = tail call i32 @dissector_try_uint_with_data(ptr noundef %15, i32 noundef %17, ptr noundef %0, ptr noundef %1, ptr noundef %2, i1 noundef zeroext false, ptr noundef %3)
  %.not = icmp eq i32 %18, 0
  br i1 %.not, label %21, label %19

19:                                               ; preds = %f1ap_get_private_data.exit
  %20 = tail call i32 @tvb_captured_length(ptr noundef %0)
  br label %21

21:                                               ; preds = %f1ap_get_private_data.exit, %19
  %22 = phi i32 [ %20, %19 ], [ 0, %f1ap_get_private_data.exit ]
  ret i32 %22
}